target datalayout = "e-m:e-p270:32:32-p271:32:32-p272:64:64-i64:64-i128:128-f80:128-n8:16:32:64-S128"
target triple = "x86_64-pc-linux-gnu"

%struct.strbuf = type { i64, i64, ptr }
%struct.rev_info = type { ptr, %struct.object_array, ptr, %struct.object_array, %struct.rev_cmdline_info, %struct.list_objects_filter_options, %struct.ref_exclusions, ptr, ptr, ptr, %struct.pathspec, i32, i32, i32, i32, i64, i32, i32, %struct.date_mode, i32, i32, i32, i32, ptr, i32, i32, ptr, ptr, i32, ptr, ptr, %struct.ident_split, ptr, i32, ptr, ptr, ptr, i32, i32, i32, ptr, %struct.grep_opt, ptr, i32, i32, i64, i64, i64, i32, i32, ptr, ptr, ptr, %struct.diff_options, %struct.diff_options, ptr, %struct.decoration, %struct.decoration, %struct.decoration, %struct.display_notes_opt, ptr, ptr, ptr, ptr, ptr, i32, ptr, i32, i32, i32, %struct.decoration, ptr, ptr, ptr, ptr, ptr, ptr, ptr, i32, ptr, i32, ptr, %struct.oidset }
%struct.object_array = type { i32, i32, ptr }
%struct.rev_cmdline_info = type { i32, i32, ptr }
%struct.list_objects_filter_options = type { %struct.strbuf, i32, i8, ptr, i64, i64, i32, i64, i64, ptr }
%struct.ref_exclusions = type { %struct.string_list, %struct.strvec, i8 }
%struct.string_list = type { ptr, i64, i64, i8, ptr }
%struct.strvec = type { ptr, i64, i64 }
%struct.pathspec = type { i32, i8, i32, i32, ptr }
%struct.date_mode = type { i32, i32, ptr }
%struct.ident_split = type { ptr, ptr, ptr, ptr, ptr, ptr, ptr, ptr }
%struct.grep_opt = type { ptr, ptr, ptr, ptr, ptr, ptr, i32, i32, i32, i32, i32, i32, i32, i32, i32, i32, i32, i32, i32, i32, i32, i32, i32, i32, i32, i32, i32, i32, i32, i32, i32, i32, [9 x [75 x i8]], i32, i32, i32, i32, i32, i32, i32, ptr, ptr, ptr }
%struct.diff_options = type { ptr, ptr, i32, i32, ptr, i32, ptr, i64, i64, ptr, ptr, ptr, ptr, %struct.diff_flags, i32, i32, i32, i32, i32, i32, i32, i32, i32, i32, i32, i32, i32, i32, i32, i32, i32, i32, i32, i32, i32, i32, ptr, i32, ptr, i32, i32, ptr, i64, i64, i32, i32, i32, i32, ptr, i32, i32, ptr, i32, i32, ptr, ptr, i32, [3 x i8], %struct.pathspec, ptr, ptr, ptr, ptr, ptr, ptr, ptr, ptr, i32, ptr, i32, i32, ptr, ptr, i32 }
%struct.diff_flags = type { i32, i32, i32, i32, i32, i32, i32, i32, i32, i32, i32, i32, i32, i32, i32, i32, i32, i32, i32, i32, i32, i32, i32, i32, i32, i32, i32, i32, i32, i32, i32, i32, i32, i32, i32 }
%struct.display_notes_opt = type { i32, %struct.string_list }
%struct.decoration = type { ptr, i32, i32, ptr }
%struct.oidset = type { %struct.kh_oid_set }
%struct.kh_oid_set = type { i32, i32, i32, i32, ptr, ptr, ptr }
%struct.combine_diff_path = type { ptr, ptr, i32, %struct.object_id, [0 x %struct.combine_diff_parent] }
%struct.object_id = type { [32 x i8], i32 }
%struct.combine_diff_parent = type { i8, i32, %struct.object_id, ptr }

@.str.5 = private unnamed_addr constant [3 x i8] c"%s\00", align 1
@.str.6 = private unnamed_addr constant [6 x i8] c"%06o \00", align 1
@.str.7 = private unnamed_addr constant [5 x i8] c"%06o\00", align 1
@.str.8 = private unnamed_addr constant [4 x i8] c" %s\00", align 1
@.str.9 = private unnamed_addr constant [5 x i8] c" %s \00", align 1
@stdout = external global ptr, align 8

; Function Attrs: inlinehint nounwind uwtable
define available_externally i32 @putchar(i32 noundef %0) #5 {
  %2 = alloca i32, align 4
  store i32 %0, ptr %2, align 4, !tbaa !9
  %3 = load i32, ptr %2, align 4, !tbaa !9
  %4 = load ptr, ptr @stdout, align 8, !tbaa !79
  %5 = call i32 @putc(i32 noundef %3, ptr noundef %4)
  ret i32 %5
}

; Function Attrs: nounwind uwtable
define internal void @show_raw_diff(ptr noundef %0, i32 noundef %1, ptr noundef %2) #0 {
  %4 = alloca ptr, align 8
  %5 = alloca i32, align 4
  %6 = alloca ptr, align 8
  %7 = alloca ptr, align 8
  %8 = alloca i32, align 4
  %9 = alloca i32, align 4
  %10 = alloca i32, align 4
  %11 = alloca ptr, align 8
  %12 = alloca ptr, align 8
  store ptr %0, ptr %4, align 8, !tbaa !4
  store i32 %1, ptr %5, align 4, !tbaa !9
  store ptr %2, ptr %6, align 8, !tbaa !11
  call void @llvm.lifetime.start.p0(i64 8, ptr %7) #9
  %13 = load ptr, ptr %6, align 8, !tbaa !11
  %14 = getelementptr inbounds nuw %struct.rev_info, ptr %13, i32 0, i32 53
  store ptr %14, ptr %7, align 8, !tbaa !13
  call void @llvm.lifetime.start.p0(i64 4, ptr %8) #9
  call void @llvm.lifetime.start.p0(i64 4, ptr %9) #9
  call void @llvm.lifetime.start.p0(i64 4, ptr %10) #9
  call void @llvm.lifetime.start.p0(i64 8, ptr %11) #9
  %15 = load ptr, ptr %7, align 8, !tbaa !13
  %16 = call ptr @diff_line_prefix(ptr noundef %15)
  store ptr %16, ptr %11, align 8, !tbaa !29
  %17 = load ptr, ptr %7, align 8, !tbaa !13
  %18 = getelementptr inbounds nuw %struct.diff_options, ptr %17, i32 0, i32 23
  %19 = load i32, ptr %18, align 8, !tbaa !30
  store i32 %19, ptr %8, align 4, !tbaa !9
  store i32 9, ptr %9, align 4, !tbaa !9
  %20 = load i32, ptr %8, align 4, !tbaa !9
  %21 = icmp ne i32 %20, 0
  br i1 %21, label %23, label %22

22:                                               ; preds = %3
  store i32 0, ptr %9, align 4, !tbaa !9
  br label %23

23:                                               ; preds = %22, %3
  %24 = load ptr, ptr %6, align 8, !tbaa !11
  %25 = getelementptr inbounds nuw %struct.rev_info, ptr %24, i32 0, i32 23
  %26 = load ptr, ptr %25, align 8, !tbaa !31
  %27 = icmp ne ptr %26, null
  br i1 %27, label %28, label %38

28:                                               ; preds = %23
  %29 = load ptr, ptr %6, align 8, !tbaa !11
  %30 = getelementptr inbounds nuw %struct.rev_info, ptr %29, i32 0, i32 15
  %31 = load i64, ptr %30, align 8
  %32 = lshr i64 %31, 48
  %33 = and i64 %32, 1
  %34 = trunc i64 %33 to i32
  %35 = icmp ne i32 %34, 0
  br i1 %35, label %38, label %36

36:                                               ; preds = %28
  %37 = load ptr, ptr %6, align 8, !tbaa !11
  call void @show_log(ptr noundef %37)
  br label %38

38:                                               ; preds = %36, %28, %23
  %39 = load ptr, ptr %7, align 8, !tbaa !13
  %40 = getelementptr inbounds nuw %struct.diff_options, ptr %39, i32 0, i32 24
  %41 = load i32, ptr %40, align 4, !tbaa !15
  %42 = and i32 %41, 1
  %43 = icmp ne i32 %42, 0
  br i1 %43, label %44, label %105

44:                                               ; preds = %38
  %45 = load ptr, ptr %11, align 8, !tbaa !29
  %46 = call i32 (ptr, ...) @printf(ptr noundef @.str.5, ptr noundef %45)
  store i32 0, ptr %10, align 4, !tbaa !9
  br label %47

47:                                               ; preds = %53, %44
  %48 = load i32, ptr %10, align 4, !tbaa !9
  %49 = load i32, ptr %5, align 4, !tbaa !9
  %50 = icmp slt i32 %48, %49
  br i1 %50, label %51, label %56

51:                                               ; preds = %47
  %52 = call i32 @putchar(i32 noundef 58)
  br label %53

53:                                               ; preds = %51
  %54 = load i32, ptr %10, align 4, !tbaa !9
  %55 = add nsw i32 %54, 1
  store i32 %55, ptr %10, align 4, !tbaa !9
  br label %47, !llvm.loop !68

56:                                               ; preds = %47
  store i32 0, ptr %10, align 4, !tbaa !9
  br label %57

57:                                               ; preds = %70, %56
  %58 = load i32, ptr %10, align 4, !tbaa !9
  %59 = load i32, ptr %5, align 4, !tbaa !9
  %60 = icmp slt i32 %58, %59
  br i1 %60, label %61, label %73

61:                                               ; preds = %57
  %62 = load ptr, ptr %4, align 8, !tbaa !4
  %63 = getelementptr inbounds nuw %struct.combine_diff_path, ptr %62, i32 0, i32 4
  %64 = load i32, ptr %10, align 4, !tbaa !9
  %65 = sext i32 %64 to i64
  %66 = getelementptr inbounds [0 x %struct.combine_diff_parent], ptr %63, i64 0, i64 %65
  %67 = getelementptr inbounds nuw %struct.combine_diff_parent, ptr %66, i32 0, i32 1
  %68 = load i32, ptr %67, align 4, !tbaa !70
  %69 = call i32 (ptr, ...) @printf(ptr noundef @.str.6, i32 noundef %68)
  br label %70

70:                                               ; preds = %61
  %71 = load i32, ptr %10, align 4, !tbaa !9
  %72 = add nsw i32 %71, 1
  store i32 %72, ptr %10, align 4, !tbaa !9
  br label %57, !llvm.loop !73

73:                                               ; preds = %57
  %74 = load ptr, ptr %4, align 8, !tbaa !4
  %75 = getelementptr inbounds nuw %struct.combine_diff_path, ptr %74, i32 0, i32 2
  %76 = load i32, ptr %75, align 8, !tbaa !9
  %77 = call i32 (ptr, ...) @printf(ptr noundef @.str.7, i32 noundef %76)
  store i32 0, ptr %10, align 4, !tbaa !9
  br label %78

78:                                               ; preds = %94, %73
  %79 = load i32, ptr %10, align 4, !tbaa !9
  %80 = load i32, ptr %5, align 4, !tbaa !9
  %81 = icmp slt i32 %79, %80
  br i1 %81, label %82, label %97

82:                                               ; preds = %78
  %83 = load ptr, ptr %4, align 8, !tbaa !4
  %84 = getelementptr inbounds nuw %struct.combine_diff_path, ptr %83, i32 0, i32 4
  %85 = load i32, ptr %10, align 4, !tbaa !9
  %86 = sext i32 %85 to i64
  %87 = getelementptr inbounds [0 x %struct.combine_diff_parent], ptr %84, i64 0, i64 %86
  %88 = getelementptr inbounds nuw %struct.combine_diff_parent, ptr %87, i32 0, i32 2
  %89 = load ptr, ptr %7, align 8, !tbaa !13
  %90 = getelementptr inbounds nuw %struct.diff_options, ptr %89, i32 0, i32 32
  %91 = load i32, ptr %90, align 4, !tbaa !74
  %92 = call ptr @diff_aligned_abbrev(ptr noundef %88, i32 noundef %91)
  %93 = call i32 (ptr, ...) @printf(ptr noundef @.str.8, ptr noundef %92)
  br label %94

94:                                               ; preds = %82
  %95 = load i32, ptr %10, align 4, !tbaa !9
  %96 = add nsw i32 %95, 1
  store i32 %96, ptr %10, align 4, !tbaa !9
  br label %78, !llvm.loop !75

97:                                               ; preds = %78
  %98 = load ptr, ptr %4, align 8, !tbaa !4
  %99 = getelementptr inbounds nuw %struct.combine_diff_path, ptr %98, i32 0, i32 3
  %100 = load ptr, ptr %7, align 8, !tbaa !13
  %101 = getelementptr inbounds nuw %struct.diff_options, ptr %100, i32 0, i32 32
  %102 = load i32, ptr %101, align 4, !tbaa !74
  %103 = call ptr @diff_aligned_abbrev(ptr noundef %99, i32 noundef %102)
  %104 = call i32 (ptr, ...) @printf(ptr noundef @.str.9, ptr noundef %103)
  br label %105

105:                                              ; preds = %97, %38
  %106 = load ptr, ptr %7, align 8, !tbaa !13
  %107 = getelementptr inbounds nuw %struct.diff_options, ptr %106, i32 0, i32 24
  %108 = load i32, ptr %107, align 4, !tbaa !15
  %109 = and i32 %108, 513
  %110 = icmp ne i32 %109, 0
  br i1 %110, label %111, label %132

111:                                              ; preds = %105
  store i32 0, ptr %10, align 4, !tbaa !9
  br label %112

112:                                              ; preds = %126, %111
  %113 = load i32, ptr %10, align 4, !tbaa !9
  %114 = load i32, ptr %5, align 4, !tbaa !9
  %115 = icmp slt i32 %113, %114
  br i1 %115, label %116, label %129

116:                                              ; preds = %112
  %117 = load ptr, ptr %4, align 8, !tbaa !4
  %118 = getelementptr inbounds nuw %struct.combine_diff_path, ptr %117, i32 0, i32 4
  %119 = load i32, ptr %10, align 4, !tbaa !9
  %120 = sext i32 %119 to i64
  %121 = getelementptr inbounds [0 x %struct.combine_diff_parent], ptr %118, i64 0, i64 %120
  %122 = getelementptr inbounds nuw %struct.combine_diff_parent, ptr %121, i32 0, i32 0
  %123 = load i8, ptr %122, align 8, !tbaa !76
  %124 = sext i8 %123 to i32
  %125 = call i32 @putchar(i32 noundef %124)
  br label %126

126:                                              ; preds = %116
  %127 = load i32, ptr %10, align 4, !tbaa !9
  %128 = add nsw i32 %127, 1
  store i32 %128, ptr %10, align 4, !tbaa !9
  br label %112, !llvm.loop !77

129:                                              ; preds = %112
  %130 = load i32, ptr %9, align 4, !tbaa !9
  %131 = call i32 @putchar(i32 noundef %130)
  br label %132

132:                                              ; preds = %129, %105
  store i32 0, ptr %10, align 4, !tbaa !9
  br label %133

133:                                              ; preds = %172, %132
  %134 = load i32, ptr %10, align 4, !tbaa !9
  %135 = load i32, ptr %5, align 4, !tbaa !9
  %136 = icmp slt i32 %134, %135
  br i1 %136, label %137, label %175

137:                                              ; preds = %133
  %138 = load ptr, ptr %6, align 8, !tbaa !11
  %139 = getelementptr inbounds nuw %struct.rev_info, ptr %138, i32 0, i32 15
  %140 = load i64, ptr %139, align 8
  %141 = lshr i64 %140, 56
  %142 = and i64 %141, 1
  %143 = trunc i64 %142 to i32
  %144 = icmp ne i32 %143, 0
  br i1 %144, label %145, label %171

145:                                              ; preds = %137
  call void @llvm.lifetime.start.p0(i64 8, ptr %12) #9
  %146 = load ptr, ptr %4, align 8, !tbaa !4
  %147 = getelementptr inbounds nuw %struct.combine_diff_path, ptr %146, i32 0, i32 4
  %148 = load i32, ptr %10, align 4, !tbaa !9
  %149 = sext i32 %148 to i64
  %150 = getelementptr inbounds [0 x %struct.combine_diff_parent], ptr %147, i64 0, i64 %149
  %151 = getelementptr inbounds nuw %struct.combine_diff_parent, ptr %150, i32 0, i32 3
  %152 = load ptr, ptr %151, align 8, !tbaa !78
  %153 = icmp ne ptr %152, null
  br i1 %153, label %154, label %162

154:                                              ; preds = %145
  %155 = load ptr, ptr %4, align 8, !tbaa !4
  %156 = getelementptr inbounds nuw %struct.combine_diff_path, ptr %155, i32 0, i32 4
  %157 = load i32, ptr %10, align 4, !tbaa !9
  %158 = sext i32 %157 to i64
  %159 = getelementptr inbounds [0 x %struct.combine_diff_parent], ptr %156, i64 0, i64 %158
  %160 = getelementptr inbounds nuw %struct.combine_diff_parent, ptr %159, i32 0, i32 3
  %161 = load ptr, ptr %160, align 8, !tbaa !78
  br label %166

162:                                              ; preds = %145
  %163 = load ptr, ptr %4, align 8, !tbaa !4
  %164 = getelementptr inbounds nuw %struct.combine_diff_path, ptr %163, i32 0, i32 1
  %165 = load ptr, ptr %164, align 8, !tbaa !29
  br label %166

166:                                              ; preds = %162, %154
  %167 = phi ptr [ %161, %154 ], [ %165, %162 ]
  store ptr %167, ptr %12, align 8, !tbaa !29
  %168 = load ptr, ptr %12, align 8, !tbaa !29
  %169 = load ptr, ptr @stdout, align 8, !tbaa !79
  %170 = load i32, ptr %9, align 4, !tbaa !9
  call void @write_name_quoted(ptr noundef %168, ptr noundef %169, i32 noundef %170)
  call void @llvm.lifetime.end.p0(i64 8, ptr %12) #9
  br label %171

171:                                              ; preds = %166, %137
  br label %172

172:                                              ; preds = %171
  %173 = load i32, ptr %10, align 4, !tbaa !9
  %174 = add nsw i32 %173, 1
  store i32 %174, ptr %10, align 4, !tbaa !9
  br label %133, !llvm.loop !80

175:                                              ; preds = %133
  %176 = load ptr, ptr %4, align 8, !tbaa !4
  %177 = getelementptr inbounds nuw %struct.combine_diff_path, ptr %176, i32 0, i32 1
  %178 = load ptr, ptr %177, align 8, !tbaa !29
  %179 = load ptr, ptr @stdout, align 8, !tbaa !79
  %180 = load i32, ptr %8, align 4, !tbaa !9
  call void @write_name_quoted(ptr noundef %178, ptr noundef %179, i32 noundef %180)
  call void @llvm.lifetime.end.p0(i64 8, ptr %11) #9
  call void @llvm.lifetime.end.p0(i64 4, ptr %10) #9
  call void @llvm.lifetime.end.p0(i64 4, ptr %9) #9
  call void @llvm.lifetime.end.p0(i64 4, ptr %8) #9
  call void @llvm.lifetime.end.p0(i64 8, ptr %7) #9
  ret void
}