; Function Attrs: nounwind uwtable
define internal fastcc void @show_raw_diff(ptr noundef %0, i32 noundef %1, ptr noundef %2) unnamed_addr #0 {
  %4 = getelementptr inbounds nuw i8, ptr %2, i64 1472
  %5 = tail call ptr @diff_line_prefix(ptr noundef nonnull %4) #15
  %6 = getelementptr inbounds nuw i8, ptr %2, i64 1744
  %7 = load i32, ptr %6, align 8, !tbaa !22
  %.not = icmp eq i32 %7, 0
  %spec.store.select = select i1 %.not, i32 0, i32 9
  %8 = getelementptr inbounds nuw i8, ptr %2, i64 336
  %9 = load ptr, ptr %8, align 8, !tbaa !23
  %.not47 = icmp eq ptr %9, null
  br i1 %.not47, label %15, label %10

10:                                               ; preds = %3
  %11 = getelementptr inbounds nuw i8, ptr %2, i64 288
  %12 = load i64, ptr %11, align 8
  %13 = and i64 %12, 281474976710656
  %.not48 = icmp eq i64 %13, 0
  br i1 %.not48, label %14, label %15

14:                                               ; preds = %10
  tail call void @show_log(ptr noundef nonnull %2) #15
  br label %15

15:                                               ; preds = %14, %10, %3
  %16 = getelementptr inbounds nuw i8, ptr %2, i64 1748
  %17 = load i32, ptr %16, align 4, !tbaa !4
  %18 = and i32 %17, 1
  %.not49 = icmp eq i32 %18, 0
  br i1 %.not49, label %48, label %19

19:                                               ; preds = %15
  %20 = tail call i32 (ptr, ...) @printf(ptr noundef nonnull dereferenceable(1) @.str.5, ptr noundef %5)
  %21 = icmp sgt i32 %1, 0
  br i1 %21, label %.lr.ph, label %._crit_edge.thread

.lr.ph58:                                         ; preds = %.lr.ph
  %22 = getelementptr i8, ptr %0, i64 60
  %wide.trip.count = zext nneg i32 %1 to i64
  br label %26

.lr.ph:                                           ; preds = %19, %.lr.ph
  %.056 = phi i32 [ %25, %.lr.ph ], [ 0, %19 ]
  %23 = load ptr, ptr @stdout, align 8, !tbaa !60
  %24 = tail call i32 @putc(i32 noundef 58, ptr noundef %23)
  %25 = add nuw nsw i32 %.056, 1
  %exitcond.not = icmp eq i32 %25, %1
  br i1 %exitcond.not, label %.lr.ph58, label %.lr.ph, !llvm.loop !61

26:                                               ; preds = %.lr.ph58, %26
  %indvars.iv = phi i64 [ 0, %.lr.ph58 ], [ %indvars.iv.next, %26 ]
  %.idx54 = mul nuw nsw i64 %indvars.iv, 56
  %27 = getelementptr i8, ptr %22, i64 %.idx54
  %28 = load i32, ptr %27, align 4, !tbaa !63
  %29 = tail call i32 (ptr, ...) @printf(ptr noundef nonnull dereferenceable(1) @.str.6, i32 noundef %28)
  %indvars.iv.next = add nuw nsw i64 %indvars.iv, 1
  %exitcond71.not = icmp eq i64 %indvars.iv.next, %wide.trip.count
  br i1 %exitcond71.not, label %._crit_edge, label %26, !llvm.loop !66

._crit_edge.thread:                               ; preds = %19
  %30 = getelementptr inbounds nuw i8, ptr %0, i64 16
  %31 = load i32, ptr %30, align 8, !tbaa !67
  %32 = tail call i32 (ptr, ...) @printf(ptr noundef nonnull dereferenceable(1) @.str.7, i32 noundef %31)
  br label %._crit_edge62

._crit_edge:                                      ; preds = %26
  %33 = getelementptr inbounds nuw i8, ptr %0, i64 16
  %34 = load i32, ptr %33, align 8, !tbaa !67
  %35 = tail call i32 (ptr, ...) @printf(ptr noundef nonnull dereferenceable(1) @.str.7, i32 noundef %34)
  %36 = getelementptr i8, ptr %0, i64 64
  %37 = getelementptr inbounds nuw i8, ptr %2, i64 1780
  %wide.trip.count75 = zext nneg i32 %1 to i64
  br label %38

38:                                               ; preds = %._crit_edge, %38
  %indvars.iv72 = phi i64 [ 0, %._crit_edge ], [ %indvars.iv.next73, %38 ]
  %.idx53 = mul nuw nsw i64 %indvars.iv72, 56
  %39 = getelementptr i8, ptr %36, i64 %.idx53
  %40 = load i32, ptr %37, align 4, !tbaa !68
  %41 = tail call ptr @diff_aligned_abbrev(ptr noundef %39, i32 noundef %40) #15
  %42 = tail call i32 (ptr, ...) @printf(ptr noundef nonnull dereferenceable(1) @.str.8, ptr noundef %41)
  %indvars.iv.next73 = add nuw nsw i64 %indvars.iv72, 1
  %exitcond76.not = icmp eq i64 %indvars.iv.next73, %wide.trip.count75
  br i1 %exitcond76.not, label %._crit_edge62, label %38, !llvm.loop !69

._crit_edge62:                                    ; preds = %38, %._crit_edge.thread
  %43 = getelementptr inbounds nuw i8, ptr %0, i64 20
  %44 = getelementptr inbounds nuw i8, ptr %2, i64 1780
  %45 = load i32, ptr %44, align 4, !tbaa !68
  %46 = tail call ptr @diff_aligned_abbrev(ptr noundef nonnull %43, i32 noundef %45) #15
  %47 = tail call i32 (ptr, ...) @printf(ptr noundef nonnull dereferenceable(1) @.str.9, ptr noundef %46)
  %.pre = load i32, ptr %16, align 4, !tbaa !4
  br label %48

48:                                               ; preds = %._crit_edge62, %15
  %49 = phi i32 [ %.pre, %._crit_edge62 ], [ %17, %15 ]
  %50 = and i32 %49, 513
  %.not50 = icmp eq i32 %50, 0
  br i1 %.not50, label %61, label %.preheader

.preheader:                                       ; preds = %48
  %51 = icmp sgt i32 %1, 0
  br i1 %51, label %.lr.ph64, label %._crit_edge65

.lr.ph64:                                         ; preds = %.preheader
  %52 = getelementptr inbounds nuw i8, ptr %0, i64 56
  %wide.trip.count80 = zext nneg i32 %1 to i64
  br label %53

53:                                               ; preds = %.lr.ph64, %53
  %indvars.iv77 = phi i64 [ 0, %.lr.ph64 ], [ %indvars.iv.next78, %53 ]
  %54 = getelementptr inbounds nuw [0 x %struct.combine_diff_parent], ptr %52, i64 0, i64 %indvars.iv77
  %55 = load i8, ptr %54, align 8, !tbaa !70
  %56 = sext i8 %55 to i32
  %57 = load ptr, ptr @stdout, align 8, !tbaa !60
  %58 = tail call i32 @putc(i32 noundef %56, ptr noundef %57)
  %indvars.iv.next78 = add nuw nsw i64 %indvars.iv77, 1
  %exitcond81.not = icmp eq i64 %indvars.iv.next78, %wide.trip.count80
  br i1 %exitcond81.not, label %._crit_edge65, label %53, !llvm.loop !71

._crit_edge65:                                    ; preds = %53, %.preheader
  %59 = load ptr, ptr @stdout, align 8, !tbaa !60
  %60 = tail call i32 @putc(i32 noundef %spec.store.select, ptr noundef %59)
  br label %61

61:                                               ; preds = %._crit_edge65, %48
  %62 = icmp sgt i32 %1, 0
  br i1 %62, label %.lr.ph68, label %._crit_edge69

.lr.ph68:                                         ; preds = %61
  %63 = getelementptr inbounds nuw i8, ptr %2, i64 288
  %64 = getelementptr i8, ptr %0, i64 104
  %65 = getelementptr inbounds nuw i8, ptr %0, i64 8
  %wide.trip.count85 = zext nneg i32 %1 to i64
  br label %66

66:                                               ; preds = %.lr.ph68, %77
  %indvars.iv82 = phi i64 [ 0, %.lr.ph68 ], [ %indvars.iv.next83, %77 ]
  %67 = load i64, ptr %63, align 8
  %68 = and i64 %67, 72057594037927936
  %.not51 = icmp eq i64 %68, 0
  br i1 %.not51, label %77, label %69

69:                                               ; preds = %66
  %.idx = mul nuw nsw i64 %indvars.iv82, 56
  %70 = getelementptr i8, ptr %64, i64 %.idx
  %71 = load ptr, ptr %70, align 8, !tbaa !72
  %.not52 = icmp eq ptr %71, null
  br i1 %.not52, label %72, label %74

72:                                               ; preds = %69
  %73 = load ptr, ptr %65, align 8, !tbaa !73
  br label %74

74:                                               ; preds = %69, %72
  %75 = phi ptr [ %73, %72 ], [ %71, %69 ]
  %76 = load ptr, ptr @stdout, align 8, !tbaa !60
  tail call void @write_name_quoted(ptr noundef %75, ptr noundef %76, i32 noundef %spec.store.select) #15
  br label %77

77:                                               ; preds = %66, %74
  %indvars.iv.next83 = add nuw nsw i64 %indvars.iv82, 1
  %exitcond86.not = icmp eq i64 %indvars.iv.next83, %wide.trip.count85
  br i1 %exitcond86.not, label %._crit_edge69, label %66, !llvm.loop !74

._crit_edge69:                                    ; preds = %77, %61
  %78 = getelementptr inbounds nuw i8, ptr %0, i64 8
  %79 = load ptr, ptr %78, align 8, !tbaa !73
  %80 = load ptr, ptr @stdout, align 8, !tbaa !60
  tail call void @write_name_quoted(ptr noundef %79, ptr noundef %80, i32 noundef %7) #15
  ret void
}